; Function Attrs: mustprogress nounwind uwtable
define dso_local void @_ZN4node14StreamResource20RemoveStreamListenerEPNS_14StreamListenerE(ptr nocapture noundef nonnull align 8 dereferenceable(32) %this, ptr noundef %listener) local_unnamed_addr #3 align 2 {
entry:
  %cmp.not = icmp eq ptr %listener, null
  br i1 %cmp.not, label %do.body4, label %do.end5

do.body4:                                         ; preds = %entry
  tail call void @_ZN4node6AssertERKNS_13AssertionInfoE(ptr noundef nonnull align 8 dereferenceable(24) @_ZZN4node14StreamResource20RemoveStreamListenerEPNS_14StreamListenerEE4args) #20
  tail call void @abort() #21
  unreachable

do.end5:                                          ; preds = %entry
  %listener_ = getelementptr inbounds i8, ptr %this, i64 8
  %current.012 = load ptr, ptr %listener_, align 8
  %cmp7.not13 = icmp eq ptr %current.012, null
  br i1 %cmp7.not13, label %do.body12, label %do.end15.preheader

do.end15.preheader:                               ; preds = %do.end5
  %cmp1620 = icmp eq ptr %current.012, %listener
  br i1 %cmp1620, label %if.then17, label %for.inc

do.body12:                                        ; preds = %for.inc, %do.end5
  tail call void @_ZN4node6AssertERKNS_13AssertionInfoE(ptr noundef nonnull align 8 dereferenceable(24) @_ZZN4node14StreamResource20RemoveStreamListenerEPNS_14StreamListenerEE4args_0) #20
  tail call void @abort() #21
  unreachable

do.end15:                                         ; preds = %for.inc
  %cmp16 = icmp eq ptr %current.0, %listener
  br i1 %cmp16, label %if.then17, label %for.inc, !llvm.loop !11

if.then17:                                        ; preds = %do.end15, %do.end15.preheader
  %previous.014.lcssa = phi ptr [ null, %do.end15.preheader ], [ %current.01521, %do.end15 ]
  %cmp18.not = icmp eq ptr %previous.014.lcssa, null
  %previous_listener_21 = getelementptr inbounds i8, ptr %listener, i64 16
  %0 = load ptr, ptr %previous_listener_21, align 8
  %previous_listener_20 = getelementptr inbounds i8, ptr %previous.014.lcssa, i64 16
  %previous_listener_20.sink = select i1 %cmp18.not, ptr %listener_, ptr %previous_listener_20
  store ptr %0, ptr %previous_listener_20.sink, align 8
  %stream_ = getelementptr inbounds i8, ptr %listener, i64 8
  tail call void @llvm.memset.p0.i64(ptr noundef nonnull align 8 dereferenceable(16) %stream_, i8 0, i64 16, i1 false)
  ret void

for.inc:                                          ; preds = %do.end15.preheader, %do.end15
  %current.01521 = phi ptr [ %current.0, %do.end15 ], [ %current.012, %do.end15.preheader ]
  %previous_listener_25 = getelementptr inbounds i8, ptr %current.01521, i64 16
  %current.0 = load ptr, ptr %previous_listener_25, align 8
  %cmp7.not = icmp eq ptr %current.0, null
  br i1 %cmp7.not, label %do.body12, label %do.end15, !llvm.loop !11
}